	.file	"homework1.cpp"
	.text
.Ltext0:
	.file 0 "/media/shy/\346\226\260\345\212\240\345\215\267/\345\215\232\345\243\253\346\226\207\344\273\266/\345\222\275\346\260\224\346\271\226\346\226\207\344\273\266/\351\253\230\346\200\247\350\203\275\350\256\241\347\256\227\347\274\226\347\250\213/L02" "homework1.cpp"
	.local	_ZStL8__ioinit
	.comm	_ZStL8__ioinit,1,1
	.section	.text._Z7GetUsecv,"axG",@progbits,_Z7GetUsecv,comdat
	.weak	_Z7GetUsecv
	.type	_Z7GetUsecv, @function
_Z7GetUsecv:
.LFB1731:
	.file 1 "homework1.cpp"
	.loc 1 8 26
	.cfi_startproc
	endbr64
	pushq	%rbp
	.cfi_def_cfa_offset 16
	.cfi_offset 6, -16
	movq	%rsp, %rbp
	.cfi_def_cfa_register 6
	subq	$32, %rsp
	.loc 1 8 26
	movq	%fs:40, %rax
	movq	%rax, -8(%rbp)
	xorl	%eax, %eax
	.loc 1 10 15
	leaq	-32(%rbp), %rax
	movl	$0, %esi
	movq	%rax, %rdi
	call	gettimeofday@PLT
	.loc 1 11 14
	movq	-32(%rbp), %rax
	.loc 1 11 21
	imulq	$1000000, %rax, %rdx
	.loc 1 11 38
	movq	-24(%rbp), %rax
	addq	%rdx, %rax
	.loc 1 12 1
	movq	-8(%rbp), %rdx
	subq	%fs:40, %rdx
	je	.L3
	call	__stack_chk_fail@PLT
.L3:
	leave
	.cfi_def_cfa 7, 8
	ret
	.cfi_endproc
.LFE1731:
	.size	_Z7GetUsecv, .-_Z7GetUsecv
	.text
	.globl	_Z6vecaddPdS_S_m
	.type	_Z6vecaddPdS_S_m, @function
_Z6vecaddPdS_S_m:
.LFB1732:
	.loc 1 14 62
	.cfi_startproc
	endbr64
	pushq	%rbp
	.cfi_def_cfa_offset 16
	.cfi_offset 6, -16
	movq	%rsp, %rbp
	.cfi_def_cfa_register 6
	movq	%rdi, -24(%rbp)
	movq	%rsi, -32(%rbp)
	movq	%rdx, -40(%rbp)
	movq	%rcx, -48(%rbp)
.LBB2:
	.loc 1 15 14
	movq	$0, -8(%rbp)
	.loc 1 15 3
	jmp	.L5
.L6:
	.loc 1 16 15 discriminator 3
	movq	-8(%rbp), %rax
	leaq	0(,%rax,8), %rdx
	movq	-24(%rbp), %rax
	addq	%rdx, %rax
	movsd	(%rax), %xmm1
	.loc 1 16 22 discriminator 3
	movq	-8(%rbp), %rax
	leaq	0(,%rax,8), %rdx
	movq	-32(%rbp), %rax
	addq	%rdx, %rax
	movsd	(%rax), %xmm0
	.loc 1 16 8 discriminator 3
	movq	-8(%rbp), %rax
	leaq	0(,%rax,8), %rdx
	movq	-40(%rbp), %rax
	addq	%rdx, %rax
	.loc 1 16 17 discriminator 3
	addsd	%xmm1, %xmm0
	.loc 1 16 10 discriminator 3
	movsd	%xmm0, (%rax)
	.loc 1 15 3 discriminator 3
	addq	$1, -8(%rbp)
.L5:
	.loc 1 15 23 discriminator 1
	movq	-8(%rbp), %rax
	cmpq	-48(%rbp), %rax
	jb	.L6
.LBE2:
	.loc 1 18 10
	movl	$0, %eax
	.loc 1 19 1
	popq	%rbp
	.cfi_def_cfa 7, 8
	ret
	.cfi_endproc
.LFE1732:
	.size	_Z6vecaddPdS_S_m, .-_Z6vecaddPdS_S_m
	.globl	_Z14SimpleMultiplyPKdS0_Pdmmm
	.type	_Z14SimpleMultiplyPKdS0_Pdmmm, @function
_Z14SimpleMultiplyPKdS0_Pdmmm:
.LFB1733:
	.loc 1 21 95
	.cfi_startproc
	endbr64
	pushq	%rbp
	.cfi_def_cfa_offset 16
	.cfi_offset 6, -16
	movq	%rsp, %rbp
	.cfi_def_cfa_register 6
	movq	%rdi, -40(%rbp)
	movq	%rsi, -48(%rbp)
	movq	%rdx, -56(%rbp)
	movq	%rcx, -64(%rbp)
	movq	%r8, -72(%rbp)
	movq	%r9, -80(%rbp)
.LBB3:
	.loc 1 22 12
	movl	$0, -20(%rbp)
	.loc 1 22 3
	jmp	.L9
.L14:
.LBB4:
.LBB5:
	.loc 1 23 14
	movl	$0, -16(%rbp)
	.loc 1 23 5
	jmp	.L10
.L13:
.LBB6:
	.loc 1 24 14
	pxor	%xmm0, %xmm0
	movsd	%xmm0, -8(%rbp)
.LBB7:
	.loc 1 25 16
	movl	$0, -12(%rbp)
	.loc 1 25 7
	jmp	.L11
.L12:
	.loc 1 26 18 discriminator 3
	movl	-20(%rbp), %eax
	cltq
	.loc 1 26 22 discriminator 3
	imulq	-80(%rbp), %rax
	movq	%rax, %rdx
	.loc 1 26 28 discriminator 3
	movl	-12(%rbp), %eax
	cltq
	.loc 1 26 26 discriminator 3
	addq	%rdx, %rax
	.loc 1 26 29 discriminator 3
	leaq	0(,%rax,8), %rdx
	movq	-40(%rbp), %rax
	addq	%rdx, %rax
	movsd	(%rax), %xmm1
	.loc 1 26 35 discriminator 3
	movl	-12(%rbp), %eax
	cltq
	.loc 1 26 37 discriminator 3
	imulq	-72(%rbp), %rax
	movq	%rax, %rdx
	.loc 1 26 43 discriminator 3
	movl	-16(%rbp), %eax
	cltq
	.loc 1 26 41 discriminator 3
	addq	%rdx, %rax
	.loc 1 26 46 discriminator 3
	leaq	0(,%rax,8), %rdx
	movq	-48(%rbp), %rax
	addq	%rdx, %rax
	movsd	(%rax), %xmm0
	.loc 1 26 31 discriminator 3
	mulsd	%xmm1, %xmm0
	.loc 1 26 13 discriminator 3
	movsd	-8(%rbp), %xmm1
	addsd	%xmm1, %xmm0
	movsd	%xmm0, -8(%rbp)
	.loc 1 25 7 discriminator 3
	addl	$1, -12(%rbp)
.L11:
	.loc 1 25 23 discriminator 1
	movl	-12(%rbp), %eax
	cltq
	.loc 1 25 25 discriminator 1
	cmpq	%rax, -72(%rbp)
	ja	.L12
.LBE7:
	.loc 1 28 9 discriminator 2
	movl	-20(%rbp), %eax
	cltq
	.loc 1 28 13 discriminator 2
	imulq	-72(%rbp), %rax
	movq	%rax, %rdx
	.loc 1 28 19 discriminator 2
	movl	-16(%rbp), %eax
	cltq
	.loc 1 28 17 discriminator 2
	addq	%rdx, %rax
	.loc 1 28 22 discriminator 2
	leaq	0(,%rax,8), %rdx
	movq	-56(%rbp), %rax
	addq	%rdx, %rax
	.loc 1 28 24 discriminator 2
	movsd	-8(%rbp), %xmm0
	movsd	%xmm0, (%rax)
.LBE6:
	.loc 1 23 5 discriminator 2
	addl	$1, -16(%rbp)
.L10:
	.loc 1 23 23 discriminator 1
	movl	-16(%rbp), %eax
	cltq
	.loc 1 23 27 discriminator 1
	cmpq	%rax, -80(%rbp)
	ja	.L13
.LBE5:
.LBE4:
	.loc 1 22 3 discriminator 2
	addl	$1, -20(%rbp)
.L9:
	.loc 1 22 21 discriminator 1
	movl	-20(%rbp), %eax
	cltq
	.loc 1 22 25 discriminator 1
	cmpq	%rax, -64(%rbp)
	ja	.L14
.LBE3:
	.loc 1 31 1
	nop
	nop
	popq	%rbp
	.cfi_def_cfa 7, 8
	ret
	.cfi_endproc
.LFE1733:
	.size	_Z14SimpleMultiplyPKdS0_Pdmmm, .-_Z14SimpleMultiplyPKdS0_Pdmmm
	.globl	_Z12mydgemmtransmPKdS0_Pd
	.type	_Z12mydgemmtransmPKdS0_Pd, @function
_Z12mydgemmtransmPKdS0_Pd:
.LFB1734:
	.loc 1 32 74
	.cfi_startproc
	endbr64
	pushq	%rbp
	.cfi_def_cfa_offset 16
	.cfi_offset 6, -16
	movq	%rsp, %rbp
	.cfi_def_cfa_register 6
	movq	%rdi, -40(%rbp)
	movq	%rsi, -48(%rbp)
	movq	%rdx, -56(%rbp)
	movq	%rcx, -64(%rbp)
	.loc 1 35 12
	movq	$0, -32(%rbp)
	.loc 1 35 5
	jmp	.L16
.L21:
	.loc 1 36 16
	movq	$0, -24(%rbp)
	.loc 1 36 9
	jmp	.L17
.L20:
	.loc 1 37 17
	pxor	%xmm0, %xmm0
	movsd	%xmm0, -8(%rbp)
	.loc 1 38 20
	movq	$0, -16(%rbp)
	.loc 1 38 13
	jmp	.L18
.L19:
	.loc 1 39 32 discriminator 3
	movq	-32(%rbp), %rax
	imulq	-40(%rbp), %rax
	movq	%rax, %rdx
	.loc 1 39 34 discriminator 3
	movq	-16(%rbp), %rax
	addq	%rdx, %rax
	.loc 1 39 36 discriminator 3
	leaq	0(,%rax,8), %rdx
	movq	-48(%rbp), %rax
	addq	%rdx, %rax
	movsd	(%rax), %xmm1
	.loc 1 39 43 discriminator 3
	movq	-24(%rbp), %rax
	imulq	-40(%rbp), %rax
	movq	%rax, %rdx
	.loc 1 39 45 discriminator 3
	movq	-16(%rbp), %rax
	addq	%rdx, %rax
	.loc 1 39 47 discriminator 3
	leaq	0(,%rax,8), %rdx
	movq	-56(%rbp), %rax
	addq	%rdx, %rax
	movsd	(%rax), %xmm0
	.loc 1 39 38 discriminator 3
	mulsd	%xmm1, %xmm0
	.loc 1 39 21 discriminator 3
	movsd	-8(%rbp), %xmm1
	addsd	%xmm1, %xmm0
	movsd	%xmm0, -8(%rbp)
	.loc 1 38 13 discriminator 3
	addq	$1, -16(%rbp)
.L18:
	.loc 1 38 27 discriminator 1
	movq	-16(%rbp), %rax
	cmpq	-40(%rbp), %rax
	jb	.L19
	.loc 1 41 16 discriminator 2
	movq	-32(%rbp), %rax
	imulq	-40(%rbp), %rax
	movq	%rax, %rdx
	.loc 1 41 18 discriminator 2
	movq	-24(%rbp), %rax
	addq	%rdx, %rax
	.loc 1 41 20 discriminator 2
	leaq	0(,%rax,8), %rdx
	movq	-64(%rbp), %rax
	addq	%rdx, %rax
	.loc 1 41 22 discriminator 2
	movsd	-8(%rbp), %xmm0
	movsd	%xmm0, (%rax)
	.loc 1 36 9 discriminator 2
	addq	$1, -24(%rbp)
.L17:
	.loc 1 36 23 discriminator 1
	movq	-24(%rbp), %rax
	cmpq	-40(%rbp), %rax
	jb	.L20
	.loc 1 35 5 discriminator 2
	addq	$1, -32(%rbp)
.L16:
	.loc 1 35 19 discriminator 1
	movq	-32(%rbp), %rax
	cmpq	-40(%rbp), %rax
	jb	.L21
	.loc 1 44 1
	nop
	nop
	popq	%rbp
	.cfi_def_cfa 7, 8
	ret
	.cfi_endproc
.LFE1734:
	.size	_Z12mydgemmtransmPKdS0_Pd, .-_Z12mydgemmtransmPKdS0_Pd
	.globl	_Z4mypiv
	.type	_Z4mypiv, @function
_Z4mypiv:
.LFB1735:
	.loc 1 46 14
	.cfi_startproc
	endbr64
	pushq	%rbp
	.cfi_def_cfa_offset 16
	.cfi_offset 6, -16
	movq	%rsp, %rbp
	.cfi_def_cfa_register 6
	.loc 1 47 17
	pxor	%xmm0, %xmm0
	movsd	%xmm0, -32(%rbp)
	.loc 1 48 7
	movl	$1000000, -36(%rbp)
	.loc 1 49 23
	pxor	%xmm1, %xmm1
	cvtsi2sdl	-36(%rbp), %xmm1
	.loc 1 49 10
	movsd	.LC1(%rip), %xmm0
	divsd	%xmm1, %xmm0
	movsd	%xmm0, -24(%rbp)
.LBB8:
	.loc 1 50 12
	movl	$0, -40(%rbp)
	.loc 1 50 3
	jmp	.L23
.L24:
	.loc 1 52 11 discriminator 3
	pxor	%xmm1, %xmm1
	cvtsi2sdl	-40(%rbp), %xmm1
	movsd	.LC2(%rip), %xmm0
	addsd	%xmm1, %xmm0
	.loc 1 52 6 discriminator 3
	movsd	-24(%rbp), %xmm1
	mulsd	%xmm1, %xmm0
	movsd	%xmm0, -8(%rbp)
	.loc 1 53 30 discriminator 3
	movsd	-8(%rbp), %xmm0
	movapd	%xmm0, %xmm1
	mulsd	%xmm0, %xmm1
	.loc 1 53 27 discriminator 3
	movsd	.LC1(%rip), %xmm0
	addsd	%xmm0, %xmm1
	.loc 1 53 20 discriminator 3
	movsd	.LC3(%rip), %xmm0
	divsd	%xmm1, %xmm0
	.loc 1 53 8 discriminator 3
	movsd	-32(%rbp), %xmm1
	addsd	%xmm1, %xmm0
	movsd	%xmm0, -32(%rbp)
	.loc 1 50 3 discriminator 3
	addl	$1, -40(%rbp)
.L23:
	.loc 1 50 20 discriminator 1
	movl	-40(%rbp), %eax
	cmpl	-36(%rbp), %eax
	jl	.L24
.LBE8:
	.loc 1 55 6
	movsd	-24(%rbp), %xmm0
	mulsd	-32(%rbp), %xmm0
	movsd	%xmm0, -16(%rbp)
	.loc 1 56 9
	movsd	-16(%rbp), %xmm0
	movq	%xmm0, %rax
	.loc 1 57 1
	movq	%rax, %xmm0
	popq	%rbp
	.cfi_def_cfa 7, 8
	ret
	.cfi_endproc
.LFE1735:
	.size	_Z4mypiv, .-_Z4mypiv
	.section	.rodata
.LC4:
	.string	"Vecadd timing = %ldus\n"
	.align 8
.LC5:
	.string	"Matrix Multiply timing = %ldus\n"
.LC6:
	.string	"%.8e\n"
	.text
	.globl	main
	.type	main, @function
main:
.LFB1736:
	.loc 1 58 30
	.cfi_startproc
	endbr64
	pushq	%rbp
	.cfi_def_cfa_offset 16
	.cfi_offset 6, -16
	movq	%rsp, %rbp
	.cfi_def_cfa_register 6
	subq	$144, %rsp
	movl	%edi, -132(%rbp)
	movq	%rsi, -144(%rbp)
	.loc 1 60 35
	movl	$8388608, %edi
	call	_Znam@PLT
	movq	%rax, -88(%rbp)
	.loc 1 61 35
	movl	$8388608, %edi
	call	_Znam@PLT
	movq	%rax, -80(%rbp)
	.loc 1 62 35
	movl	$8388608, %edi
	call	_Znam@PLT
	movq	%rax, -72(%rbp)
	.loc 1 63 25
	call	_Z7GetUsecv
	.loc 1 63 26
	movq	%rax, -64(%rbp)
	.loc 1 64 9
	movq	-72(%rbp), %rdx
	movq	-80(%rbp), %rsi
	movq	-88(%rbp), %rax
	movl	$1048576, %ecx
	movq	%rax, %rdi
	call	_Z6vecaddPdS_S_m
	.loc 1 65 26
	call	_Z7GetUsecv
	.loc 1 65 27
	movq	%rax, -56(%rbp)
	.loc 1 66 9
	movq	-56(%rbp), %rax
	subq	-64(%rbp), %rax
	movq	%rax, %rsi
	leaq	.LC4(%rip), %rax
	movq	%rax, %rdi
	movl	$0, %eax
	call	printf@PLT
	.loc 1 66 58
	movq	stdout(%rip), %rax
	movq	%rax, %rdi
	call	fflush@PLT
	.loc 1 67 3
	cmpq	$0, -88(%rbp)
	je	.L27
	.loc 1 67 12 discriminator 1
	movq	-88(%rbp), %rax
	movq	%rax, %rdi
	call	_ZdaPv@PLT
.L27:
	.loc 1 68 5
	movq	$0, -88(%rbp)
	.loc 1 69 3
	cmpq	$0, -80(%rbp)
	je	.L28
	.loc 1 69 12 discriminator 1
	movq	-80(%rbp), %rax
	movq	%rax, %rdi
	call	_ZdaPv@PLT
.L28:
	.loc 1 70 5
	movq	$0, -80(%rbp)
	.loc 1 71 3
	cmpq	$0, -72(%rbp)
	je	.L29
	.loc 1 71 12 discriminator 1
	movq	-72(%rbp), %rax
	movq	%rax, %rdi
	call	_ZdaPv@PLT
.L29:
	.loc 1 72 5
	movq	$0, -72(%rbp)
	.loc 1 74 36
	movl	$8388608, %edi
	call	_Znam@PLT
	movq	%rax, -48(%rbp)
	.loc 1 75 36
	movl	$8388608, %edi
	call	_Znam@PLT
	movq	%rax, -40(%rbp)
	.loc 1 76 36
	movl	$8388608, %edi
	call	_Znam@PLT
	movq	%rax, -32(%rbp)
	.loc 1 78 18
	call	_Z7GetUsecv
	.loc 1 78 9
	movq	%rax, -64(%rbp)
	.loc 1 79 17
	movq	-32(%rbp), %rdx
	movq	-40(%rbp), %rsi
	movq	-48(%rbp), %rax
	movl	$1024, %r9d
	movl	$1024, %r8d
	movl	$1024, %ecx
	movq	%rax, %rdi
	call	_Z14SimpleMultiplyPKdS0_Pdmmm
	.loc 1 80 19
	call	_Z7GetUsecv
	.loc 1 80 10
	movq	%rax, -56(%rbp)
	.loc 1 81 9
	movq	-56(%rbp), %rax
	subq	-64(%rbp), %rax
	movq	%rax, %rsi
	leaq	.LC5(%rip), %rax
	movq	%rax, %rdi
	movl	$0, %eax
	call	printf@PLT
	.loc 1 81 67
	movq	stdout(%rip), %rax
	movq	%rax, %rdi
	call	fflush@PLT
	.loc 1 82 15
	movq	-32(%rbp), %rcx
	movq	-40(%rbp), %rdx
	movq	-48(%rbp), %rax
	movq	%rax, %rsi
	movl	$1024, %edi
	call	_Z12mydgemmtransmPKdS0_Pd
	.loc 1 83 8
	movb	$67, -113(%rbp)
	.loc 1 84 7
	movl	$1024, -112(%rbp)
	.loc 1 84 14
	movl	$1024, -108(%rbp)
	.loc 1 84 21
	movl	$1024, -104(%rbp)
	.loc 1 85 10
	movsd	.LC1(%rip), %xmm0
	movsd	%xmm0, -24(%rbp)
	.loc 1 85 20
	movsd	.LC1(%rip), %xmm0
	movsd	%xmm0, -16(%rbp)
	.loc 1 86 15
	movl	$102, -100(%rbp)
	.loc 1 87 20
	movl	$111, -96(%rbp)
	.loc 1 87 40
	movl	$112, -92(%rbp)
	.loc 1 88 14
	movsd	-16(%rbp), %xmm0
	movq	-24(%rbp), %rdi
	movl	-104(%rbp), %r9d
	movl	-108(%rbp), %r10d
	movl	-112(%rbp), %ecx
	movl	-92(%rbp), %edx
	movl	-96(%rbp), %esi
	movl	-100(%rbp), %eax
	movl	-112(%rbp), %r8d
	pushq	%r8
	pushq	-32(%rbp)
	movl	-108(%rbp), %r8d
	pushq	%r8
	pushq	-40(%rbp)
	movl	-112(%rbp), %r8d
	pushq	%r8
	pushq	-48(%rbp)
	movapd	%xmm0, %xmm1
	movq	%rdi, %xmm0
	movl	%r10d, %r8d
	movl	%eax, %edi
	call	cblas_dgemm@PLT
	addq	$48, %rsp
	.loc 1 89 3
	cmpq	$0, -48(%rbp)
	je	.L30
	.loc 1 89 12 discriminator 1
	movq	-48(%rbp), %rax
	movq	%rax, %rdi
	call	_ZdaPv@PLT
.L30:
	.loc 1 90 6
	movq	$0, -48(%rbp)
	.loc 1 91 3
	cmpq	$0, -40(%rbp)
	je	.L31
	.loc 1 91 12 discriminator 1
	movq	-40(%rbp), %rax
	movq	%rax, %rdi
	call	_ZdaPv@PLT
.L31:
	.loc 1 92 6
	movq	$0, -40(%rbp)
	.loc 1 93 3
	cmpq	$0, -32(%rbp)
	je	.L32
	.loc 1 93 12 discriminator 1
	movq	-32(%rbp), %rax
	movq	%rax, %rdi
	call	_ZdaPv@PLT
.L32:
	.loc 1 94 6
	movq	$0, -32(%rbp)
	.loc 1 95 17
	call	_Z4mypiv
	movq	%xmm0, %rax
	movq	%rax, -8(%rbp)
	.loc 1 96 9
	movq	-8(%rbp), %rax
	movq	%rax, %xmm0
	leaq	.LC6(%rip), %rax
	movq	%rax, %rdi
	movl	$1, %eax
	call	printf@PLT
	.loc 1 96 29
	movq	stdout(%rip), %rax
	movq	%rax, %rdi
	call	fflush@PLT
	.loc 1 97 10
	movl	$0, %eax
	.loc 1 98 1
	leave
	.cfi_def_cfa 7, 8
	ret
	.cfi_endproc
.LFE1736:
	.size	main, .-main
	.type	_Z41__static_initialization_and_destruction_0ii, @function
_Z41__static_initialization_and_destruction_0ii:
.LFB2231:
	.loc 1 98 1
	.cfi_startproc
	endbr64
	pushq	%rbp
	.cfi_def_cfa_offset 16
	.cfi_offset 6, -16
	movq	%rsp, %rbp
	.cfi_def_cfa_register 6
	subq	$16, %rsp
	movl	%edi, -4(%rbp)
	movl	%esi, -8(%rbp)
	.loc 1 98 1
	cmpl	$1, -4(%rbp)
	jne	.L36
	.loc 1 98 1 is_stmt 0 discriminator 1
	cmpl	$65535, -8(%rbp)
	jne	.L36
	.file 2 "/usr/include/c++/11/iostream"
	.loc 2 74 25 is_stmt 1
	leaq	_ZStL8__ioinit(%rip), %rax
	movq	%rax, %rdi
	call	_ZNSt8ios_base4InitC1Ev@PLT
	leaq	__dso_handle(%rip), %rax
	movq	%rax, %rdx
	leaq	_ZStL8__ioinit(%rip), %rax
	movq	%rax, %rsi
	movq	_ZNSt8ios_base4InitD1Ev@GOTPCREL(%rip), %rax
	movq	%rax, %rdi
	call	__cxa_atexit@PLT
.L36:
	.loc 1 98 1
	nop
	leave
	.cfi_def_cfa 7, 8
	ret
	.cfi_endproc
.LFE2231:
	.size	_Z41__static_initialization_and_destruction_0ii, .-_Z41__static_initialization_and_destruction_0ii
	.type	_GLOBAL__sub_I__Z6vecaddPdS_S_m, @function
_GLOBAL__sub_I__Z6vecaddPdS_S_m:
.LFB2232:
	.loc 1 98 1
	.cfi_startproc
	endbr64
	pushq	%rbp
	.cfi_def_cfa_offset 16
	.cfi_offset 6, -16
	movq	%rsp, %rbp
	.cfi_def_cfa_register 6
	.loc 1 98 1
	movl	$65535, %esi
	movl	$1, %edi
	call	_Z41__static_initialization_and_destruction_0ii
	popq	%rbp
	.cfi_def_cfa 7, 8
	ret
	.cfi_endproc
.LFE2232:
	.size	_GLOBAL__sub_I__Z6vecaddPdS_S_m, .-_GLOBAL__sub_I__Z6vecaddPdS_S_m
	.section	.init_array,"aw"
	.align 8
	.quad	_GLOBAL__sub_I__Z6vecaddPdS_S_m
	.section	.rodata
	.align 8
.LC1:
	.long	0
	.long	1072693248
	.align 8
.LC2:
	.long	0
	.long	1071644672
	.align 8
.LC3:
	.long	0
	.long	1074790400
	.text
.Letext0:
	.file 3 "<built-in>"
	.file 4 "/usr/lib/gcc/x86_64-linux-gnu/11/include/stddef.h"
	.file 5 "/usr/include/x86_64-linux-gnu/bits/types/wint_t.h"
	.file 6 "/usr/include/x86_64-linux-gnu/bits/types/__mbstate_t.h"
	.file 7 "/usr/include/x86_64-linux-gnu/bits/types/mbstate_t.h"
	.file 8 "/usr/include/x86_64-linux-gnu/bits/types/__FILE.h"
	.file 9 "/usr/include/x86_64-linux-gnu/bits/types/struct_FILE.h"
	.file 10 "/usr/include/x86_64-linux-gnu/bits/types/FILE.h"
	.file 11 "/usr/include/c++/11/cwchar"
	.file 12 "/usr/include/x86_64-linux-gnu/c++/11/bits/c++config.h"
	.file 13 "/usr/include/c++/11/type_traits"
	.file 14 "/usr/include/c++/11/bits/exception_ptr.h"
	.file 15 "/usr/include/c++/11/debug/debug.h"
	.file 16 "/usr/include/c++/11/cstdint"
	.file 17 "/usr/include/c++/11/clocale"
	.file 18 "/usr/include/c++/11/cstdlib"
	.file 19 "/usr/include/c++/11/cstdio"
	.file 20 "/usr/include/c++/11/bits/ios_base.h"
	.file 21 "/usr/include/c++/11/cwctype"
	.file 22 "/usr/include/wchar.h"
	.file 23 "/usr/include/x86_64-linux-gnu/bits/types/struct_tm.h"
	.file 24 "/usr/include/c++/11/bits/predefined_ops.h"
	.file 25 "/usr/include/x86_64-linux-gnu/bits/types.h"
	.file 26 "/usr/include/x86_64-linux-gnu/bits/stdint-intn.h"
	.file 27 "/usr/include/x86_64-linux-gnu/bits/stdint-uintn.h"
	.file 28 "/usr/include/stdint.h"
	.file 29 "/usr/include/locale.h"
	.file 30 "/usr/include/x86_64-linux-gnu/bits/types/struct_timeval.h"
	.file 31 "/usr/include/stdlib.h"
	.file 32 "/usr/include/x86_64-linux-gnu/bits/types/__fpos_t.h"
	.file 33 "/usr/include/stdio.h"
	.file 34 "/usr/include/x86_64-linux-gnu/bits/wctype-wchar.h"
	.file 35 "/usr/include/wctype.h"
	.file 36 "/usr/include/x86_64-linux-gnu/openblas_config.h"
	.file 37 "/usr/include/x86_64-linux-gnu/cblas.h"
	.file 38 "/usr/include/x86_64-linux-gnu/sys/time.h"
	.file 39 "/usr/include/c++/11/new"
	.file 40 "/usr/include/c++/11/system_error"
	.section	.note.GNU-stack,"",@progbits
	.section	.note.gnu.property,"a"
	.align 8
	.long	1f - 0f
	.long	4f - 1f
	.long	5
0:
	.string	"GNU"
1:
	.align 8
	.long	0xc0000002
	.long	3f - 2f
2:
	.long	0x3
3:
	.align 8
4:
